target datalayout = "e-m:e-p270:32:32-p271:32:32-p272:64:64-i64:64-i128:128-f80:128-n8:16:32:64-S128"
target triple = "x86_64-pc-linux-gnu"

%struct.ftmap_s = type { ptr, i32 }

; Function Attrs: nounwind uwtable
define ptr @cli_ftname(i32 noundef %0) #0 {
  %2 = alloca ptr, align 8
  %3 = alloca i32, align 4
  %4 = alloca i32, align 4
  store i32 %0, ptr %3, align 4
  store i32 0, ptr %4, align 4
  br label %5

5:                                                ; preds = %27, %1
  %6 = load i32, ptr %4, align 4
  %7 = zext i32 %6 to i64
  %8 = getelementptr inbounds [87 x %struct.ftmap_s], ptr @ftmap, i64 0, i64 %7
  %9 = getelementptr inbounds %struct.ftmap_s, ptr %8, i32 0, i32 0
  %10 = load ptr, ptr %9, align 16
  %11 = icmp ne ptr %10, null
  br i1 %11, label %12, label %30

12:                                               ; preds = %5
  %13 = load i32, ptr %4, align 4
  %14 = zext i32 %13 to i64
  %15 = getelementptr inbounds [87 x %struct.ftmap_s], ptr @ftmap, i64 0, i64 %14
  %16 = getelementptr inbounds %struct.ftmap_s, ptr %15, i32 0, i32 1
  %17 = load i32, ptr %16, align 8
  %18 = load i32, ptr %3, align 4
  %19 = icmp eq i32 %17, %18
  br i1 %19, label %20, label %26

20:                                               ; preds = %12
  %21 = load i32, ptr %4, align 4
  %22 = zext i32 %21 to i64
  %23 = getelementptr inbounds [87 x %struct.ftmap_s], ptr @ftmap, i64 0, i64 %22
  %24 = getelementptr inbounds %struct.ftmap_s, ptr %23, i32 0, i32 0
  %25 = load ptr, ptr %24, align 16
  store ptr %25, ptr %2, align 8
  br label %31

26:                                               ; preds = %12
  br label %27

27:                                               ; preds = %26
  %28 = load i32, ptr %4, align 4
  %29 = add i32 %28, 1
  store i32 %29, ptr %4, align 4
  br label %5

30:                                               ; preds = %5
  store ptr null, ptr %2, align 8
  br label %31

31:                                               ; preds = %30, %20
  %32 = load ptr, ptr %2, align 8
  ret ptr %32
}