; Function Attrs: nofree norecurse nosync nounwind memory(none) uwtable
define ptr @cli_ftname(i32 noundef %0) local_unnamed_addr #2 {
  %2 = icmp eq i32 %0, 500
  br i1 %2, label %._crit_edge, label %.lr.ph

.lr.ph:                                           ; preds = %1, %4
  %indvars.iv9 = phi i64 [ %indvars.iv.next, %4 ], [ 0, %1 ]
  %indvars.iv.next = add nuw nsw i64 %indvars.iv9, 1
  %3 = getelementptr inbounds nuw [87 x %struct.ftmap_s], ptr @ftmap, i64 0, i64 %indvars.iv.next
  %exitcond = icmp eq i64 %indvars.iv.next, 86
  br i1 %exitcond, label %._crit_edge.loopexit, label %4

4:                                                ; preds = %.lr.ph
  %5 = getelementptr inbounds nuw i8, ptr %3, i64 8
  %6 = load i32, ptr %5, align 8
  %7 = icmp eq i32 %6, %0
  br i1 %7, label %._crit_edge.loopexit, label %.lr.ph

._crit_edge.loopexit:                             ; preds = %.lr.ph, %4
  %8 = load ptr, ptr %3, align 16
  br label %._crit_edge

._crit_edge:                                      ; preds = %._crit_edge.loopexit, %1
  %.lcssa = phi ptr [ @.str.33, %1 ], [ %8, %._crit_edge.loopexit ]
  ret ptr %.lcssa
}